; Function Attrs: mustprogress nofree norecurse nosync nounwind willreturn memory(argmem: write) uwtable
define range(i32 -22, 1) i32 @av_size_mult(i64 noundef %0, i64 noundef %1, ptr noundef writeonly captures(none) %2) local_unnamed_addr #15 {
  %4 = tail call { i64, i1 } @llvm.umul.with.overflow.i64(i64 %0, i64 %1)
  %5 = extractvalue { i64, i1 } %4, 1
  br i1 %5, label %size_mult.exit, label %6

6:                                                ; preds = %3
  %7 = extractvalue { i64, i1 } %4, 0
  store i64 %7, ptr %2, align 8, !tbaa !19
  br label %size_mult.exit

size_mult.exit:                                   ; preds = %3, %6
  %.0.i = phi i32 [ 0, %6 ], [ -22, %3 ]
  ret i32 %.0.i
}